target datalayout = "e-m:e-p270:32:32-p271:32:32-p272:64:64-i64:64-i128:128-f80:128-n8:16:32:64-S128"
target triple = "x86_64-pc-linux-gnu"

%struct._packet_info = type { ptr, ptr, i32, i32, %struct.nstime_t, %struct.nstime_t, %struct.nstime_t, i8, ptr, ptr, ptr, ptr, %struct._address, %struct._address, %struct._address, %struct._address, %struct._address, %struct._address, i32, ptr, i8, [3 x i8], %struct.anon, i32, i32, i32, i32, ptr, i8, ptr, ptr, i16, i16, i32, i32, i16, i32, i32, ptr, ptr, ptr, i8, i8, i16, i16, i16, i32, i16, i16, ptr, ptr, ptr, ptr, ptr, i32, i32 }
%struct.nstime_t = type { i64, i32 }
%struct._address = type { i32, i32, ptr, ptr }
%struct.anon = type { i8, [3 x i8] }

@hf_gvcp_resendcmd_stream_channel_index = internal global i32 0, align 4
@hf_gvcp_resendcmd_block_id = internal global i32 0, align 4
@hf_gvcp_resendcmd_first_packet_id = internal global i32 0, align 4
@hf_gvcp_resendcmd_last_packet_id = internal global i32 0, align 4
@hf_gvcp_resendcmd_extended_block_id_v2_0 = internal global i32 0, align 4
@hf_gvcp_resendcmd_extended_first_packet_id_v2_0 = internal global i32 0, align 4
@hf_gvcp_resendcmd_extended_last_packet_id_v2_0 = internal global i32 0, align 4
@ett_gvcp_payload_cmd = internal global i32 0, align 4
@.str.743 = private unnamed_addr constant [26 x i8] c"Block %lu, Packets %d->%d\00", align 1
@.str.744 = private unnamed_addr constant [24 x i8] c"PACKETRESEND_CMD Values\00", align 1

; Function Attrs: null_pointer_is_valid sspstrong uwtable
define internal void @dissect_packetresend_cmd(ptr noundef %0, ptr noundef %1, ptr noundef %2, i32 noundef %3, i32 noundef %4, i32 noundef %5) #0 {
  %7 = alloca ptr, align 8
  %8 = alloca ptr, align 8
  %9 = alloca ptr, align 8
  %10 = alloca i32, align 4
  %11 = alloca i32, align 4
  %12 = alloca i32, align 4
  %13 = alloca i64, align 8
  %14 = alloca i32, align 4
  %15 = alloca i32, align 4
  %16 = alloca i32, align 4
  %17 = alloca i64, align 8
  %18 = alloca i64, align 8
  store ptr %0, ptr %7, align 8
  store ptr %1, ptr %8, align 8
  store ptr %2, ptr %9, align 8
  store i32 %3, ptr %10, align 4
  store i32 %4, ptr %11, align 4
  store i32 %5, ptr %12, align 4
  call void @llvm.lifetime.start.p0(i64 8, ptr %13) #7
  store i64 0, ptr %13, align 8
  call void @llvm.lifetime.start.p0(i64 4, ptr %14) #7
  store i32 0, ptr %14, align 4
  call void @llvm.lifetime.start.p0(i64 4, ptr %15) #7
  store i32 0, ptr %15, align 4
  call void @llvm.lifetime.start.p0(i64 4, ptr %16) #7
  %19 = load i32, ptr %10, align 4
  store i32 %19, ptr %16, align 4
  %20 = load i32, ptr %12, align 4
  %21 = icmp eq i32 %20, 0
  br i1 %21, label %22, label %28

22:                                               ; preds = %6
  %23 = load ptr, ptr %8, align 8
  %24 = load i32, ptr %16, align 4
  %25 = add i32 %24, 2
  %26 = call zeroext i16 @tvb_get_ntohs(ptr noundef %23, i32 noundef %25)
  %27 = zext i16 %26 to i64
  store i64 %27, ptr %13, align 8
  br label %43

28:                                               ; preds = %6
  call void @llvm.lifetime.start.p0(i64 8, ptr %17) #7
  call void @llvm.lifetime.start.p0(i64 8, ptr %18) #7
  %29 = load ptr, ptr %8, align 8
  %30 = load i32, ptr %16, align 4
  %31 = add i32 %30, 12
  %32 = call i32 @tvb_get_ntohl(ptr noundef %29, i32 noundef %31)
  %33 = zext i32 %32 to i64
  store i64 %33, ptr %17, align 8
  %34 = load ptr, ptr %8, align 8
  %35 = load i32, ptr %16, align 4
  %36 = add i32 %35, 16
  %37 = call i32 @tvb_get_ntohl(ptr noundef %34, i32 noundef %36)
  %38 = zext i32 %37 to i64
  store i64 %38, ptr %18, align 8
  %39 = load i64, ptr %18, align 8
  %40 = load i64, ptr %17, align 8
  %41 = shl i64 %40, 32
  %42 = or i64 %39, %41
  store i64 %42, ptr %13, align 8
  call void @llvm.lifetime.end.p0(i64 8, ptr %18) #7
  call void @llvm.lifetime.end.p0(i64 8, ptr %17) #7
  br label %43

43:                                               ; preds = %28, %22
  %44 = load i32, ptr %12, align 4
  %45 = icmp eq i32 %44, 0
  br i1 %45, label %46, label %57

46:                                               ; preds = %43
  %47 = load ptr, ptr %8, align 8
  %48 = load i32, ptr %16, align 4
  %49 = add i32 %48, 4
  %50 = call i32 @tvb_get_ntohl(ptr noundef %47, i32 noundef %49)
  %51 = and i32 %50, 16777215
  store i32 %51, ptr %14, align 4
  %52 = load ptr, ptr %8, align 8
  %53 = load i32, ptr %16, align 4
  %54 = add i32 %53, 8
  %55 = call i32 @tvb_get_ntohl(ptr noundef %52, i32 noundef %54)
  %56 = and i32 %55, 16777215
  store i32 %56, ptr %15, align 4
  br label %66

57:                                               ; preds = %43
  %58 = load ptr, ptr %8, align 8
  %59 = load i32, ptr %16, align 4
  %60 = add i32 %59, 4
  %61 = call i32 @tvb_get_ntohl(ptr noundef %58, i32 noundef %60)
  store i32 %61, ptr %14, align 4
  %62 = load ptr, ptr %8, align 8
  %63 = load i32, ptr %16, align 4
  %64 = add i32 %63, 8
  %65 = call i32 @tvb_get_ntohl(ptr noundef %62, i32 noundef %64)
  store i32 %65, ptr %15, align 4
  br label %66

66:                                               ; preds = %57, %46
  %67 = load ptr, ptr %9, align 8
  %68 = getelementptr inbounds nuw %struct._packet_info, ptr %67, i32 0, i32 1
  %69 = load ptr, ptr %68, align 8
  %70 = load i64, ptr %13, align 8
  %71 = load i32, ptr %14, align 4
  %72 = load i32, ptr %15, align 4
  call void (ptr, i32, ptr, ...) @col_append_fstr(ptr noundef %69, i32 noundef 25, ptr noundef @.str.743, i64 noundef %70, i32 noundef %71, i32 noundef %72)
  %73 = load ptr, ptr %7, align 8
  %74 = icmp ne ptr %73, null
  br i1 %74, label %75, label %128

75:                                               ; preds = %66
  %76 = load ptr, ptr %7, align 8
  %77 = load ptr, ptr %8, align 8
  %78 = load i32, ptr %10, align 4
  %79 = load i32, ptr %11, align 4
  %80 = load i32, ptr @ett_gvcp_payload_cmd, align 4
  %81 = call ptr @proto_tree_add_subtree(ptr noundef %76, ptr noundef %77, i32 noundef %78, i32 noundef %79, i32 noundef %80, ptr noundef null, ptr noundef @.str.744)
  store ptr %81, ptr %7, align 8
  %82 = load ptr, ptr %7, align 8
  %83 = load i32, ptr @hf_gvcp_resendcmd_stream_channel_index, align 4
  %84 = load ptr, ptr %8, align 8
  %85 = load i32, ptr %16, align 4
  %86 = call ptr @proto_tree_add_item(ptr noundef %82, i32 noundef %83, ptr noundef %84, i32 noundef %85, i32 noundef 2, i32 noundef 0)
  %87 = load i32, ptr %12, align 4
  %88 = icmp eq i32 %87, 0
  br i1 %88, label %89, label %108

89:                                               ; preds = %75
  %90 = load ptr, ptr %7, align 8
  %91 = load i32, ptr @hf_gvcp_resendcmd_block_id, align 4
  %92 = load ptr, ptr %8, align 8
  %93 = load i32, ptr %16, align 4
  %94 = add i32 %93, 2
  %95 = call ptr @proto_tree_add_item(ptr noundef %90, i32 noundef %91, ptr noundef %92, i32 noundef %94, i32 noundef 2, i32 noundef 0)
  %96 = load ptr, ptr %7, align 8
  %97 = load i32, ptr @hf_gvcp_resendcmd_first_packet_id, align 4
  %98 = load ptr, ptr %8, align 8
  %99 = load i32, ptr %16, align 4
  %100 = add i32 %99, 5
  %101 = call ptr @proto_tree_add_item(ptr noundef %96, i32 noundef %97, ptr noundef %98, i32 noundef %100, i32 noundef 3, i32 noundef 0)
  %102 = load ptr, ptr %7, align 8
  %103 = load i32, ptr @hf_gvcp_resendcmd_last_packet_id, align 4
  %104 = load ptr, ptr %8, align 8
  %105 = load i32, ptr %16, align 4
  %106 = add i32 %105, 9
  %107 = call ptr @proto_tree_add_item(ptr noundef %102, i32 noundef %103, ptr noundef %104, i32 noundef %106, i32 noundef 3, i32 noundef 0)
  br label %127

108:                                              ; preds = %75
  %109 = load ptr, ptr %7, align 8
  %110 = load i32, ptr @hf_gvcp_resendcmd_extended_block_id_v2_0, align 4
  %111 = load ptr, ptr %8, align 8
  %112 = load i32, ptr %16, align 4
  %113 = add i32 %112, 12
  %114 = call ptr @proto_tree_add_item(ptr noundef %109, i32 noundef %110, ptr noundef %111, i32 noundef %113, i32 noundef 8, i32 noundef 0)
  %115 = load ptr, ptr %7, align 8
  %116 = load i32, ptr @hf_gvcp_resendcmd_extended_first_packet_id_v2_0, align 4
  %117 = load ptr, ptr %8, align 8
  %118 = load i32, ptr %16, align 4
  %119 = add i32 %118, 4
  %120 = call ptr @proto_tree_add_item(ptr noundef %115, i32 noundef %116, ptr noundef %117, i32 noundef %119, i32 noundef 4, i32 noundef 0)
  %121 = load ptr, ptr %7, align 8
  %122 = load i32, ptr @hf_gvcp_resendcmd_extended_last_packet_id_v2_0, align 4
  %123 = load ptr, ptr %8, align 8
  %124 = load i32, ptr %16, align 4
  %125 = add i32 %124, 8
  %126 = call ptr @proto_tree_add_item(ptr noundef %121, i32 noundef %122, ptr noundef %123, i32 noundef %125, i32 noundef 4, i32 noundef 0)
  br label %127

127:                                              ; preds = %108, %89
  br label %128

128:                                              ; preds = %127, %66
  call void @llvm.lifetime.end.p0(i64 4, ptr %16) #7
  call void @llvm.lifetime.end.p0(i64 4, ptr %15) #7
  call void @llvm.lifetime.end.p0(i64 4, ptr %14) #7
  call void @llvm.lifetime.end.p0(i64 8, ptr %13) #7
  ret void
}