; Function Attrs: null_pointer_is_valid sspstrong uwtable
define internal fastcc void @dissect_packetresend_cmd(ptr noundef %0, ptr noundef %1, ptr noundef readonly captures(none) %2, i32 noundef range(i32 0, 65536) %3, i32 noundef range(i32 -1, 17) %4) unnamed_addr #0 {
  %6 = icmp eq i32 %4, 0
  br i1 %6, label %7, label %14

7:                                                ; preds = %5
  %8 = tail call zeroext i16 @tvb_get_ntohs(ptr noundef %1, i32 noundef 10)
  %9 = zext i16 %8 to i64
  %10 = tail call i32 @tvb_get_ntohl(ptr noundef %1, i32 noundef 12)
  %11 = and i32 %10, 16777215
  %12 = tail call i32 @tvb_get_ntohl(ptr noundef %1, i32 noundef 16)
  %13 = and i32 %12, 16777215
  br label %23

14:                                               ; preds = %5
  %15 = tail call i32 @tvb_get_ntohl(ptr noundef %1, i32 noundef 20)
  %16 = zext i32 %15 to i64
  %17 = tail call i32 @tvb_get_ntohl(ptr noundef %1, i32 noundef 24)
  %18 = zext i32 %17 to i64
  %19 = shl nuw i64 %16, 32
  %20 = or disjoint i64 %19, %18
  %21 = tail call i32 @tvb_get_ntohl(ptr noundef %1, i32 noundef 12)
  %22 = tail call i32 @tvb_get_ntohl(ptr noundef %1, i32 noundef 16)
  br label %23

23:                                               ; preds = %14, %7
  %.053 = phi i64 [ %9, %7 ], [ %20, %14 ]
  %.050 = phi i32 [ %13, %7 ], [ %22, %14 ]
  %.049 = phi i32 [ %11, %7 ], [ %21, %14 ]
  %24 = getelementptr inbounds nuw i8, ptr %2, i64 8
  %25 = load ptr, ptr %24, align 8
  tail call void (ptr, i32, ptr, ...) @col_append_fstr(ptr noundef %25, i32 noundef 25, ptr noundef nonnull @.str.743, i64 noundef %.053, i32 noundef %.049, i32 noundef %.050)
  %.not = icmp eq ptr %0, null
  br i1 %.not, label %45, label %26

26:                                               ; preds = %23
  %27 = load i32, ptr @ett_gvcp_payload_cmd, align 4
  %28 = tail call ptr @proto_tree_add_subtree(ptr noundef nonnull %0, ptr noundef %1, i32 noundef 8, i32 noundef %3, i32 noundef %27, ptr noundef null, ptr noundef nonnull @.str.744)
  %29 = load i32, ptr @hf_gvcp_resendcmd_stream_channel_index, align 4
  %30 = tail call ptr @proto_tree_add_item(ptr noundef %28, i32 noundef %29, ptr noundef %1, i32 noundef 8, i32 noundef 2, i32 noundef 0)
  br i1 %6, label %31, label %38

31:                                               ; preds = %26
  %32 = load i32, ptr @hf_gvcp_resendcmd_block_id, align 4
  %33 = tail call ptr @proto_tree_add_item(ptr noundef %28, i32 noundef %32, ptr noundef %1, i32 noundef 10, i32 noundef 2, i32 noundef 0)
  %34 = load i32, ptr @hf_gvcp_resendcmd_first_packet_id, align 4
  %35 = tail call ptr @proto_tree_add_item(ptr noundef %28, i32 noundef %34, ptr noundef %1, i32 noundef 13, i32 noundef 3, i32 noundef 0)
  %36 = load i32, ptr @hf_gvcp_resendcmd_last_packet_id, align 4
  %37 = tail call ptr @proto_tree_add_item(ptr noundef %28, i32 noundef %36, ptr noundef %1, i32 noundef 17, i32 noundef 3, i32 noundef 0)
  br label %45

38:                                               ; preds = %26
  %39 = load i32, ptr @hf_gvcp_resendcmd_extended_block_id_v2_0, align 4
  %40 = tail call ptr @proto_tree_add_item(ptr noundef %28, i32 noundef %39, ptr noundef %1, i32 noundef 20, i32 noundef 8, i32 noundef 0)
  %41 = load i32, ptr @hf_gvcp_resendcmd_extended_first_packet_id_v2_0, align 4
  %42 = tail call ptr @proto_tree_add_item(ptr noundef %28, i32 noundef %41, ptr noundef %1, i32 noundef 12, i32 noundef 4, i32 noundef 0)
  %43 = load i32, ptr @hf_gvcp_resendcmd_extended_last_packet_id_v2_0, align 4
  %44 = tail call ptr @proto_tree_add_item(ptr noundef %28, i32 noundef %43, ptr noundef %1, i32 noundef 16, i32 noundef 4, i32 noundef 0)
  br label %45

45:                                               ; preds = %31, %38, %23
  ret void
}